target datalayout = "e-m:e-p270:32:32-p271:32:32-p272:64:64-i64:64-i128:128-f80:128-n8:16:32:64-S128"
target triple = "x86_64-pc-linux-gnu"

@duckdb_je_sz_large_pad = global i64 0, align 8
@duckdb_je_sz_pind2sz_tab = global [200 x i64] zeroinitializer, align 64

; Function Attrs: inlinehint nounwind uwtable
define internal i32 @fls_lu(i64 noundef %0) #3 {
  %2 = alloca i64, align 8
  store i64 %0, ptr %2, align 8, !tbaa !3
  %3 = load i64, ptr %2, align 8, !tbaa !3
  %4 = icmp ne i64 %3, 0
  call void @llvm.assume(i1 %4)
  %5 = load i64, ptr %2, align 8, !tbaa !3
  %6 = call i64 @llvm.ctlz.i64(i64 %5, i1 true)
  %7 = trunc i64 %6 to i32
  %8 = sext i32 %7 to i64
  %9 = xor i64 63, %8
  %10 = trunc i64 %9 to i32
  ret i32 %10
}

; Function Attrs: inlinehint nounwind uwtable
define internal i32 @fls_u64(i64 noundef %0) #3 {
  %2 = alloca i64, align 8
  store i64 %0, ptr %2, align 8, !tbaa !3
  %3 = load i64, ptr %2, align 8, !tbaa !3
  %4 = call i32 @fls_lu(i64 noundef %3)
  ret i32 %4
}

; Function Attrs: inlinehint nounwind uwtable
define internal i32 @lg_floor(i64 noundef %0) #3 {
  %2 = alloca i64, align 8
  store i64 %0, ptr %2, align 8, !tbaa !3
  %3 = load i64, ptr %2, align 8, !tbaa !3
  %4 = icmp ne i64 %3, 0
  call void @llvm.assume(i1 %4)
  %5 = load i64, ptr %2, align 8, !tbaa !3
  %6 = call i32 @fls_u64(i64 noundef %5)
  ret i32 %6
}

; Function Attrs: inlinehint nounwind uwtable
define internal i64 @sz_pind2sz_lookup(i32 noundef %0) #3 {
  %2 = alloca i32, align 4
  %3 = alloca i64, align 8
  store i32 %0, ptr %2, align 4, !tbaa !7
  call void @llvm.lifetime.start.p0(i64 8, ptr %3) #7
  %4 = load i32, ptr %2, align 4, !tbaa !7
  %5 = zext i32 %4 to i64
  %6 = getelementptr inbounds nuw [200 x i64], ptr @duckdb_je_sz_pind2sz_tab, i64 0, i64 %5
  %7 = load i64, ptr %6, align 8, !tbaa !3
  store i64 %7, ptr %3, align 8, !tbaa !3
  br label %8

8:                                                ; preds = %1
  br label %9

9:                                                ; preds = %8
  br label %10

10:                                               ; preds = %9
  %11 = load i64, ptr %3, align 8, !tbaa !3
  call void @llvm.lifetime.end.p0(i64 8, ptr %3) #7
  ret i64 %11
}

; Function Attrs: inlinehint nounwind uwtable
define internal i32 @lg_ceil(i64 noundef %0) #3 {
  %2 = alloca i64, align 8
  store i64 %0, ptr %2, align 8, !tbaa !3
  %3 = load i64, ptr %2, align 8, !tbaa !3
  %4 = call i32 @lg_floor(i64 noundef %3)
  %5 = load i64, ptr %2, align 8, !tbaa !3
  %6 = load i64, ptr %2, align 8, !tbaa !3
  %7 = sub i64 %6, 1
  %8 = and i64 %5, %7
  %9 = icmp eq i64 %8, 0
  %10 = select i1 %9, i32 0, i32 1
  %11 = add i32 %4, %10
  ret i32 %11
}

; Function Attrs: inlinehint nounwind uwtable
define internal i64 @sz_pind2sz(i32 noundef %0) #3 {
  %2 = alloca i32, align 4
  store i32 %0, ptr %2, align 4, !tbaa !7
  br label %3

3:                                                ; preds = %1
  br label %4

4:                                                ; preds = %3
  %5 = load i32, ptr %2, align 4, !tbaa !7
  %6 = call i64 @sz_pind2sz_lookup(i32 noundef %5)
  ret i64 %6
}

; Function Attrs: alwaysinline nounwind uwtable
define internal i32 @sz_psz2ind(i64 noundef %0) #2 {
  %2 = alloca i32, align 4
  %3 = alloca i64, align 8
  %4 = alloca i32, align 4
  %5 = alloca i32, align 4
  %6 = alloca i32, align 4
  %7 = alloca i32, align 4
  %8 = alloca i32, align 4
  %9 = alloca i32, align 4
  store i64 %0, ptr %3, align 8, !tbaa !3
  br label %10

10:                                               ; preds = %1
  br label %11

11:                                               ; preds = %10
  %12 = load i64, ptr %3, align 8, !tbaa !3
  %13 = icmp ugt i64 %12, 8070450532247928832
  %14 = xor i1 %13, true
  %15 = xor i1 %14, true
  %16 = zext i1 %15 to i32
  %17 = sext i32 %16 to i64
  %18 = call i64 @llvm.expect.i64(i64 %17, i64 0)
  %19 = icmp ne i64 %18, 0
  br i1 %19, label %20, label %21

20:                                               ; preds = %11
  store i32 199, ptr %2, align 4
  br label %54

21:                                               ; preds = %11
  call void @llvm.lifetime.start.p0(i64 4, ptr %4) #7
  %22 = load i64, ptr %3, align 8, !tbaa !3
  %23 = call i32 @lg_ceil(i64 noundef %22)
  store i32 %23, ptr %4, align 4, !tbaa !7
  call void @llvm.lifetime.start.p0(i64 4, ptr %5) #7
  %24 = load i32, ptr %4, align 4, !tbaa !7
  %25 = icmp ult i32 %24, 14
  br i1 %25, label %26, label %27

26:                                               ; preds = %21
  br label %30

27:                                               ; preds = %21
  %28 = load i32, ptr %4, align 4, !tbaa !7
  %29 = sub i32 %28, 14
  br label %30

30:                                               ; preds = %27, %26
  %31 = phi i32 [ 0, %26 ], [ %29, %27 ]
  store i32 %31, ptr %5, align 4, !tbaa !7
  call void @llvm.lifetime.start.p0(i64 4, ptr %6) #7
  %32 = load i32, ptr %5, align 4, !tbaa !7
  %33 = icmp eq i32 %32, 0
  br i1 %33, label %34, label %35

34:                                               ; preds = %30
  br label %39

35:                                               ; preds = %30
  %36 = load i32, ptr %5, align 4, !tbaa !7
  %37 = sub i32 %36, 1
  %38 = add i32 12, %37
  br label %39

39:                                               ; preds = %35, %34
  %40 = phi i32 [ 12, %34 ], [ %38, %35 ]
  store i32 %40, ptr %6, align 4, !tbaa !7
  call void @llvm.lifetime.start.p0(i64 4, ptr %7) #7
  %41 = load i64, ptr %3, align 8, !tbaa !3
  %42 = sub i64 %41, 1
  %43 = load i32, ptr %6, align 4, !tbaa !7
  %44 = zext i32 %43 to i64
  %45 = lshr i64 %42, %44
  %46 = and i64 %45, 3
  %47 = trunc i64 %46 to i32
  store i32 %47, ptr %7, align 4, !tbaa !7
  call void @llvm.lifetime.start.p0(i64 4, ptr %8) #7
  %48 = load i32, ptr %5, align 4, !tbaa !7
  %49 = shl i32 %48, 2
  store i32 %49, ptr %8, align 4, !tbaa !7
  call void @llvm.lifetime.start.p0(i64 4, ptr %9) #7
  %50 = load i32, ptr %8, align 4, !tbaa !7
  %51 = load i32, ptr %7, align 4, !tbaa !7
  %52 = add i32 %50, %51
  store i32 %52, ptr %9, align 4, !tbaa !7
  %53 = load i32, ptr %9, align 4, !tbaa !7
  store i32 %53, ptr %2, align 4
  call void @llvm.lifetime.end.p0(i64 4, ptr %9) #7
  call void @llvm.lifetime.end.p0(i64 4, ptr %8) #7
  call void @llvm.lifetime.end.p0(i64 4, ptr %7) #7
  call void @llvm.lifetime.end.p0(i64 4, ptr %6) #7
  call void @llvm.lifetime.end.p0(i64 4, ptr %5) #7
  call void @llvm.lifetime.end.p0(i64 4, ptr %4) #7
  br label %54

54:                                               ; preds = %39, %20
  %55 = load i32, ptr %2, align 4
  ret i32 %55
}

; Function Attrs: nounwind uwtable
define i64 @duckdb_je_sz_psz_quantize_floor(i64 noundef %0) #0 {
  %2 = alloca i64, align 8
  %3 = alloca i64, align 8
  %4 = alloca i64, align 8
  %5 = alloca i32, align 4
  %6 = alloca i32, align 4
  store i64 %0, ptr %3, align 8, !tbaa !3
  call void @llvm.lifetime.start.p0(i64 8, ptr %4) #7
  call void @llvm.lifetime.start.p0(i64 4, ptr %5) #7
  br label %7

7:                                                ; preds = %1
  br label %8

8:                                                ; preds = %7
  br label %9

9:                                                ; preds = %8
  br label %10

10:                                               ; preds = %9
  br label %11

11:                                               ; preds = %10
  br label %12

12:                                               ; preds = %11
  %13 = load i64, ptr %3, align 8, !tbaa !3
  %14 = load i64, ptr @duckdb_je_sz_large_pad, align 8, !tbaa !3
  %15 = sub i64 %13, %14
  %16 = add i64 %15, 1
  %17 = call i32 @sz_psz2ind(i64 noundef %16)
  store i32 %17, ptr %5, align 4, !tbaa !7
  %18 = load i32, ptr %5, align 4, !tbaa !7
  %19 = icmp eq i32 %18, 0
  br i1 %19, label %20, label %22

20:                                               ; preds = %12
  %21 = load i64, ptr %3, align 8, !tbaa !3
  store i64 %21, ptr %2, align 8
  store i32 1, ptr %6, align 4
  br label %32

22:                                               ; preds = %12
  %23 = load i32, ptr %5, align 4, !tbaa !7
  %24 = sub i32 %23, 1
  %25 = call i64 @sz_pind2sz(i32 noundef %24)
  %26 = load i64, ptr @duckdb_je_sz_large_pad, align 8, !tbaa !3
  %27 = add i64 %25, %26
  store i64 %27, ptr %4, align 8, !tbaa !3
  br label %28

28:                                               ; preds = %22
  br label %29

29:                                               ; preds = %28
  br label %30

30:                                               ; preds = %29
  %31 = load i64, ptr %4, align 8, !tbaa !3
  store i64 %31, ptr %2, align 8
  store i32 1, ptr %6, align 4
  br label %32

32:                                               ; preds = %30, %20
  call void @llvm.lifetime.end.p0(i64 4, ptr %5) #7
  call void @llvm.lifetime.end.p0(i64 8, ptr %4) #7
  %33 = load i64, ptr %2, align 8
  ret i64 %33
}