; Function Attrs: mustprogress nofree norecurse nosync nounwind willreturn memory(read, argmem: none, inaccessiblemem: write) uwtable
define i64 @duckdb_je_sz_psz_quantize_floor(i64 noundef %0) local_unnamed_addr #0 {
  %2 = load i64, ptr @duckdb_je_sz_large_pad, align 8, !tbaa !3
  %3 = sub i64 %0, %2
  %4 = add i64 %3, 1
  %5 = icmp ugt i64 %4, 8070450532247928832
  br i1 %5, label %sz_psz2ind.exit.thread, label %sz_psz2ind.exit, !prof !7

sz_psz2ind.exit:                                  ; preds = %1
  %6 = icmp ne i64 %4, 0
  tail call void @llvm.assume(i1 %6)
  %7 = tail call range(i64 0, 65) i64 @llvm.ctlz.i64(i64 %3, i1 false)
  %8 = trunc nuw nsw i64 %7 to i32
  %9 = tail call i32 @llvm.usub.sat.i32(i32 50, i32 %8)
  %10 = icmp ult i64 %3, 16384
  %11 = add nuw nsw i32 %9, 11
  %12 = zext nneg i32 %11 to i64
  %13 = select i1 %10, i64 12, i64 %12
  %14 = lshr i64 %3, %13
  %15 = trunc i64 %14 to i32
  %16 = and i32 %15, 3
  %17 = shl nuw nsw i32 %9, 2
  %18 = or disjoint i32 %16, %17
  %19 = icmp eq i32 %18, 0
  br i1 %19, label %25, label %sz_psz2ind.exit.thread

sz_psz2ind.exit.thread:                           ; preds = %1, %sz_psz2ind.exit
  %.0.i8 = phi i32 [ %18, %sz_psz2ind.exit ], [ 199, %1 ]
  %20 = add nsw i32 %.0.i8, -1
  %21 = zext nneg i32 %20 to i64
  %22 = getelementptr inbounds nuw [200 x i64], ptr @duckdb_je_sz_pind2sz_tab, i64 0, i64 %21
  %23 = load i64, ptr %22, align 8, !tbaa !3
  %24 = add i64 %23, %2
  br label %25

25:                                               ; preds = %sz_psz2ind.exit, %sz_psz2ind.exit.thread
  %.0 = phi i64 [ %24, %sz_psz2ind.exit.thread ], [ %0, %sz_psz2ind.exit ]
  ret i64 %.0
}